; Function Attrs: mustprogress uwtable
define hidden void @_ZN3sat4ddfw13external_flipEj(ptr noundef nonnull align 8 dereferenceable(434) %0, i32 noundef %1) local_unnamed_addr #4 align 2 personality ptr @__gxx_personality_v0 {
  %3 = getelementptr inbounds nuw i8, ptr %0, i64 432
  %4 = load i8, ptr %3, align 8, !tbaa !89, !range !83, !noundef !84
  store i8 1, ptr %3, align 8, !tbaa !89
  invoke void @_ZN3sat4ddfw4flipEj(ptr noundef nonnull align 8 dereferenceable(434) %0, i32 noundef %1)
          to label %5 unwind label %6

5:                                                ; preds = %2
  store i8 %4, ptr %3, align 8, !tbaa !89
  ret void

6:                                                ; preds = %2
  %7 = landingpad { ptr, i32 }
          cleanup
  store i8 %4, ptr %3, align 8, !tbaa !89
  resume { ptr, i32 } %7
}